(lp0
S'poi'
p1
aS'stock_pay_ratio'
p2
aS'restricted_stock_deferred_empty'
p3
aS'dir_exp_ratio'
p4
aS'bonus'
p5
aS'director_fees'
p6
aS'expenses'
p7
aS'to_messages'
p8
aS'salary'
p9
aS'from_poi_to_this_person'
p10
aS'shared_receipt_with_poi'
p11
aS'exercised_stock_options'
p12
aS'total_stock_value'
p13
a.